target datalayout = "e-m:e-p270:32:32-p271:32:32-p272:64:64-i64:64-i128:128-f80:128-n8:16:32:64-S128"
target triple = "x86_64-pc-linux-gnu"

@.str.17 = private unnamed_addr constant [8 x i8] c"__close\00", align 1
@.str.19 = private unnamed_addr constant [3 x i8] c"%s\00", align 1
@.str.20 = private unnamed_addr constant [23 x i8] c"file is already closed\00", align 1

; Function Attrs: nounwind uwtable
define internal i32 @aux_close(ptr noundef %0) #0 {
  %2 = alloca ptr, align 8
  store ptr %0, ptr %2, align 8, !tbaa !4
  %3 = load ptr, ptr %2, align 8, !tbaa !4
  call void @lua_getfenv(ptr noundef %3, i32 noundef 1)
  %4 = load ptr, ptr %2, align 8, !tbaa !4
  call void @lua_getfield(ptr noundef %4, i32 noundef -1, ptr noundef @.str.17)
  %5 = load ptr, ptr %2, align 8, !tbaa !4
  %6 = call ptr @lua_tocfunction(ptr noundef %5, i32 noundef -1)
  %7 = load ptr, ptr %2, align 8, !tbaa !4
  %8 = call i32 %6(ptr noundef %7)
  ret i32 %8
}

; Function Attrs: nounwind uwtable
define internal i32 @io_readline(ptr noundef %0) #0 {
  %2 = alloca i32, align 4
  %3 = alloca ptr, align 8
  %4 = alloca ptr, align 8
  %5 = alloca i32, align 4
  %6 = alloca i32, align 4
  store ptr %0, ptr %3, align 8, !tbaa !4
  call void @llvm.lifetime.start.p0(i64 8, ptr %4) #6
  %7 = load ptr, ptr %3, align 8, !tbaa !4
  %8 = call ptr @lua_touserdata(ptr noundef %7, i32 noundef -10003)
  %9 = load ptr, ptr %8, align 8, !tbaa !9
  store ptr %9, ptr %4, align 8, !tbaa !9
  call void @llvm.lifetime.start.p0(i64 4, ptr %5) #6
  %10 = load ptr, ptr %4, align 8, !tbaa !9
  %11 = icmp eq ptr %10, null
  br i1 %11, label %12, label %15

12:                                               ; preds = %1
  %13 = load ptr, ptr %3, align 8, !tbaa !4
  %14 = call i32 (ptr, ptr, ...) @luaL_error(ptr noundef %13, ptr noundef @.str.20)
  br label %15

15:                                               ; preds = %12, %1
  %16 = load ptr, ptr %3, align 8, !tbaa !4
  %17 = load ptr, ptr %4, align 8, !tbaa !9
  %18 = call i32 @read_line(ptr noundef %16, ptr noundef %17)
  store i32 %18, ptr %5, align 4, !tbaa !14
  %19 = load ptr, ptr %4, align 8, !tbaa !9
  %20 = call i32 @ferror(ptr noundef %19) #6
  %21 = icmp ne i32 %20, 0
  br i1 %21, label %22, label %28

22:                                               ; preds = %15
  %23 = load ptr, ptr %3, align 8, !tbaa !4
  %24 = call ptr @__errno_location() #7
  %25 = load i32, ptr %24, align 4, !tbaa !14
  %26 = call ptr @strerror(i32 noundef %25) #6
  %27 = call i32 (ptr, ptr, ...) @luaL_error(ptr noundef %23, ptr noundef @.str.19, ptr noundef %26)
  store i32 %27, ptr %2, align 4
  store i32 1, ptr %6, align 4
  br label %42

28:                                               ; preds = %15
  %29 = load i32, ptr %5, align 4, !tbaa !14
  %30 = icmp ne i32 %29, 0
  br i1 %30, label %31, label %32

31:                                               ; preds = %28
  store i32 1, ptr %2, align 4
  store i32 1, ptr %6, align 4
  br label %42

32:                                               ; preds = %28
  %33 = load ptr, ptr %3, align 8, !tbaa !4
  %34 = call i32 @lua_toboolean(ptr noundef %33, i32 noundef -10004)
  %35 = icmp ne i32 %34, 0
  br i1 %35, label %36, label %41

36:                                               ; preds = %32
  %37 = load ptr, ptr %3, align 8, !tbaa !4
  call void @lua_settop(ptr noundef %37, i32 noundef 0)
  %38 = load ptr, ptr %3, align 8, !tbaa !4
  call void @lua_pushvalue(ptr noundef %38, i32 noundef -10003)
  %39 = load ptr, ptr %3, align 8, !tbaa !4
  %40 = call i32 @aux_close(ptr noundef %39)
  br label %41

41:                                               ; preds = %36, %32
  store i32 0, ptr %2, align 4
  store i32 1, ptr %6, align 4
  br label %42

42:                                               ; preds = %41, %31, %22
  call void @llvm.lifetime.end.p0(i64 4, ptr %5) #6
  call void @llvm.lifetime.end.p0(i64 8, ptr %4) #6
  %43 = load i32, ptr %2, align 4
  ret i32 %43
}