; Function Attrs: nounwind uwtable
define internal i32 @io_readline(ptr noundef %0) #0 {
  %2 = tail call ptr @lua_touserdata(ptr noundef %0, i32 noundef -10003) #9
  %3 = load ptr, ptr %2, align 8, !tbaa !4
  %4 = icmp eq ptr %3, null
  br i1 %4, label %.split13, label %.split

.split13:                                         ; preds = %1
  %5 = tail call i32 (ptr, ptr, ...) @luaL_error(ptr noundef %0, ptr noundef nonnull @.str.20) #9
  br label %.split

.split:                                           ; preds = %1, %.split13
  %.sink = phi ptr [ null, %.split13 ], [ %3, %1 ]
  %6 = tail call fastcc i32 @read_line(ptr noundef %0, ptr noundef %.sink)
  %7 = tail call i32 @ferror(ptr noundef %3) #9
  %.not = icmp eq i32 %7, 0
  br i1 %.not, label %13, label %8

8:                                                ; preds = %.split
  %9 = tail call ptr @__errno_location() #10
  %10 = load i32, ptr %9, align 4, !tbaa !9
  %11 = tail call ptr @strerror(i32 noundef %10) #9
  %12 = tail call i32 (ptr, ptr, ...) @luaL_error(ptr noundef %0, ptr noundef nonnull @.str.19, ptr noundef %11) #9
  br label %19

13:                                               ; preds = %.split
  %.not15 = icmp eq i32 %6, 0
  br i1 %.not15, label %14, label %19

14:                                               ; preds = %13
  %15 = tail call i32 @lua_toboolean(ptr noundef %0, i32 noundef -10004) #9
  %.not16 = icmp eq i32 %15, 0
  br i1 %.not16, label %19, label %16

16:                                               ; preds = %14
  tail call void @lua_settop(ptr noundef %0, i32 noundef 0) #9
  tail call void @lua_pushvalue(ptr noundef %0, i32 noundef -10003) #9
  tail call void @lua_getfenv(ptr noundef %0, i32 noundef 1) #9
  tail call void @lua_getfield(ptr noundef %0, i32 noundef -1, ptr noundef nonnull @.str.17) #9
  %17 = tail call ptr @lua_tocfunction(ptr noundef %0, i32 noundef -1) #9
  %18 = tail call i32 %17(ptr noundef %0) #9
  br label %19

19:                                               ; preds = %14, %16, %13, %8
  %.0 = phi i32 [ %12, %8 ], [ 1, %13 ], [ 0, %16 ], [ 0, %14 ]
  ret i32 %.0
}